; Function Attrs: mustprogress nofree norecurse nosync nounwind willreturn memory(argmem: read) uwtable
define hidden double @VP8SSIMFromStatsClipped(ptr nocapture noundef readonly %0) local_unnamed_addr #0 {
  %2 = load i32, ptr %0, align 4
  %3 = mul i32 %2, %2
  %4 = shl i32 %3, 6
  %5 = getelementptr inbounds i8, ptr %0, i64 4
  %6 = load i32, ptr %5, align 4
  %7 = zext i32 %6 to i64
  %8 = mul nuw i64 %7, %7
  %9 = getelementptr inbounds i8, ptr %0, i64 8
  %10 = load i32, ptr %9, align 4
  %11 = zext i32 %10 to i64
  %12 = mul nuw i64 %11, %11
  %13 = add i64 %12, %8
  %14 = zext i32 %4 to i64
  %.not.i = icmp ult i64 %13, %14
  br i1 %.not.i, label %SSIMCalculation.exit, label %15

15:                                               ; preds = %1
  %16 = mul i32 %3, 60
  %17 = mul i32 %3, 20
  %18 = mul nuw nsw i64 %11, %7
  %19 = getelementptr inbounds i8, ptr %0, i64 16
  %20 = load i32, ptr %19, align 4
  %21 = zext i32 %20 to i64
  %22 = zext i32 %2 to i64
  %23 = mul nuw nsw i64 %21, %22
  %24 = sub nsw i64 %23, %18
  %25 = getelementptr inbounds i8, ptr %0, i64 12
  %26 = load i32, ptr %25, align 4
  %27 = zext i32 %26 to i64
  %28 = getelementptr inbounds i8, ptr %0, i64 20
  %29 = load i32, ptr %28, align 4
  %30 = zext i32 %29 to i64
  %31 = tail call i64 @llvm.smax.i64(i64 %24, i64 0)
  %32 = shl nuw i64 %31, 1
  %33 = zext i32 %16 to i64
  %34 = add i64 %32, %33
  %35 = lshr i64 %34, 8
  %reass.add.i = add nuw nsw i64 %30, %27
  %reass.mul.i = mul i64 %reass.add.i, %22
  %36 = sub i64 %33, %13
  %37 = add i64 %36, %reass.mul.i
  %38 = lshr i64 %37, 8
  %39 = shl nuw nsw i64 %18, 1
  %40 = zext i32 %17 to i64
  %41 = add nuw nsw i64 %39, %40
  %42 = mul i64 %35, %41
  %43 = add i64 %13, %40
  %44 = mul i64 %38, %43
  %45 = uitofp i64 %42 to double
  %46 = uitofp i64 %44 to double
  %47 = fdiv double %45, %46
  br label %SSIMCalculation.exit

SSIMCalculation.exit:                             ; preds = %1, %15
  %.0.i = phi double [ %47, %15 ], [ 1.000000e+00, %1 ]
  ret double %.0.i
}